target datalayout = "e-m:e-p270:32:32-p271:32:32-p272:64:64-i64:64-i128:128-f80:128-n8:16:32:64-S128"
target triple = "x86_64-pc-linux-gnu"

%struct.rf_context = type { ptr, i8, i32, i32 }
%struct.RelationData = type { %struct.RelFileLocator, ptr, i32, i32, i8, i8, i8, i8, i8, i32, i32, i32, i32, ptr, ptr, i32, %struct.LockInfoData, ptr, ptr, ptr, ptr, ptr, i8, ptr, ptr, ptr, ptr, ptr, ptr, i32, ptr, i8, ptr, ptr, i32, i8, i32, ptr, i8, ptr, ptr, ptr, ptr, ptr, ptr, ptr, i32, ptr, ptr, ptr, ptr, ptr, ptr, ptr, ptr, ptr, ptr, ptr, ptr, ptr, ptr, ptr, ptr, ptr, ptr, ptr, i32, i8, ptr }
%struct.RelFileLocator = type { i32, i32, i32 }
%struct.LockInfoData = type { %struct.LockRelId }
%struct.LockRelId = type { i32, i32 }
%struct.FormData_pg_class = type { i32, %struct.nameData, i32, i32, i32, i32, i32, i32, i32, i32, float, i32, i32, i8, i8, i8, i8, i16, i16, i8, i8, i8, i8, i8, i8, i8, i8, i32, i32, i32 }
%struct.nameData = type { [64 x i8] }
%struct.Node = type { i32 }
%struct.Var = type { %struct.Expr, i32, i16, i32, i32, i32, ptr, i32, i32, i32, i16, i32 }
%struct.Expr = type { i32 }

; Function Attrs: nounwind uwtable
define internal zeroext i1 @contain_invalid_rfcolumn_walker(ptr noundef %0, ptr noundef %1) #0 {
  %3 = alloca i1, align 1
  %4 = alloca ptr, align 8
  %5 = alloca ptr, align 8
  %6 = alloca ptr, align 8
  %7 = alloca i16, align 2
  %8 = alloca ptr, align 8
  %9 = alloca i32, align 4
  store ptr %0, ptr %4, align 8
  store ptr %1, ptr %5, align 8
  %10 = load ptr, ptr %4, align 8
  %11 = icmp eq ptr %10, null
  br i1 %11, label %12, label %13

12:                                               ; preds = %2
  store i1 false, ptr %3, align 1
  br label %55

13:                                               ; preds = %2
  %14 = load ptr, ptr %4, align 8
  %15 = getelementptr inbounds nuw %struct.Node, ptr %14, i32 0, i32 0
  %16 = load i32, ptr %15, align 4
  %17 = icmp eq i32 %16, 6
  br i1 %17, label %18, label %51

18:                                               ; preds = %13
  call void @llvm.lifetime.start.p0(i64 8, ptr %6) #10
  %19 = load ptr, ptr %4, align 8
  store ptr %19, ptr %6, align 8
  call void @llvm.lifetime.start.p0(i64 2, ptr %7) #10
  %20 = load ptr, ptr %6, align 8
  %21 = getelementptr inbounds nuw %struct.Var, ptr %20, i32 0, i32 2
  %22 = load i16, ptr %21, align 8
  store i16 %22, ptr %7, align 2
  %23 = load ptr, ptr %5, align 8
  %24 = getelementptr inbounds nuw %struct.rf_context, ptr %23, i32 0, i32 1
  %25 = load i8, ptr %24, align 8, !range !4, !noundef !5
  %26 = trunc i8 %25 to i1
  br i1 %26, label %27, label %38

27:                                               ; preds = %18
  call void @llvm.lifetime.start.p0(i64 8, ptr %8) #10
  %28 = load ptr, ptr %5, align 8
  %29 = getelementptr inbounds nuw %struct.rf_context, ptr %28, i32 0, i32 3
  %30 = load i32, ptr %29, align 8
  %31 = load i16, ptr %7, align 2
  %32 = call ptr @get_attname(i32 noundef %30, i16 noundef signext %31, i1 noundef zeroext false)
  store ptr %32, ptr %8, align 8
  %33 = load ptr, ptr %5, align 8
  %34 = getelementptr inbounds nuw %struct.rf_context, ptr %33, i32 0, i32 2
  %35 = load i32, ptr %34, align 4
  %36 = load ptr, ptr %8, align 8
  %37 = call signext i16 @get_attnum(i32 noundef %35, ptr noundef %36)
  store i16 %37, ptr %7, align 2
  call void @llvm.lifetime.end.p0(i64 8, ptr %8) #10
  br label %38

38:                                               ; preds = %27, %18
  %39 = load i16, ptr %7, align 2
  %40 = sext i16 %39 to i32
  %41 = sub i32 %40, -7
  %42 = load ptr, ptr %5, align 8
  %43 = getelementptr inbounds nuw %struct.rf_context, ptr %42, i32 0, i32 0
  %44 = load ptr, ptr %43, align 8
  %45 = call zeroext i1 @bms_is_member(i32 noundef %41, ptr noundef %44)
  br i1 %45, label %47, label %46

46:                                               ; preds = %38
  store i1 true, ptr %3, align 1
  store i32 1, ptr %9, align 4
  br label %48

47:                                               ; preds = %38
  store i32 0, ptr %9, align 4
  br label %48

48:                                               ; preds = %47, %46
  call void @llvm.lifetime.end.p0(i64 2, ptr %7) #10
  call void @llvm.lifetime.end.p0(i64 8, ptr %6) #10
  %49 = load i32, ptr %9, align 4
  switch i32 %49, label %57 [
    i32 0, label %50
    i32 1, label %55
  ]

50:                                               ; preds = %48
  br label %51

51:                                               ; preds = %50, %13
  %52 = load ptr, ptr %4, align 8
  %53 = load ptr, ptr %5, align 8
  %54 = call zeroext i1 @expression_tree_walker_impl(ptr noundef %52, ptr noundef @contain_invalid_rfcolumn_walker, ptr noundef %53)
  store i1 %54, ptr %3, align 1
  br label %55

55:                                               ; preds = %51, %48, %12
  %56 = load i1, ptr %3, align 1
  ret i1 %56

57:                                               ; preds = %48
  unreachable
}

; Function Attrs: inlinehint nounwind uwtable
define internal ptr @DatumGetPointer(i64 noundef %0) #3 {
  %2 = alloca i64, align 8
  store i64 %0, ptr %2, align 8
  %3 = load i64, ptr %2, align 8
  %4 = inttoptr i64 %3 to ptr
  ret ptr %4
}

; Function Attrs: inlinehint nounwind uwtable
define internal i64 @ObjectIdGetDatum(i32 noundef %0) #3 {
  %2 = alloca i32, align 4
  store i32 %0, ptr %2, align 4
  %3 = load i32, ptr %2, align 4
  %4 = zext i32 %3 to i64
  ret i64 %4
}

; Function Attrs: nounwind uwtable
define dso_local zeroext i1 @pub_rf_contains_invalid_column(i32 noundef %0, ptr noundef %1, ptr noundef %2, i1 noundef zeroext %3) #0 {
  %5 = alloca i1, align 1
  %6 = alloca i32, align 4
  %7 = alloca ptr, align 8
  %8 = alloca ptr, align 8
  %9 = alloca i8, align 1
  %10 = alloca ptr, align 8
  %11 = alloca i32, align 4
  %12 = alloca i32, align 4
  %13 = alloca i8, align 1
  %14 = alloca i64, align 8
  %15 = alloca i8, align 1
  %16 = alloca i32, align 4
  %17 = alloca %struct.rf_context, align 8
  %18 = alloca ptr, align 8
  %19 = alloca ptr, align 8
  store i32 %0, ptr %6, align 4
  store ptr %1, ptr %7, align 8
  store ptr %2, ptr %8, align 8
  %20 = zext i1 %3 to i8
  store i8 %20, ptr %9, align 1
  call void @llvm.lifetime.start.p0(i64 8, ptr %10) #10
  call void @llvm.lifetime.start.p0(i64 4, ptr %11) #10
  %21 = load ptr, ptr %7, align 8
  %22 = getelementptr inbounds nuw %struct.RelationData, ptr %21, i32 0, i32 15
  %23 = load i32, ptr %22, align 8
  store i32 %23, ptr %11, align 4
  call void @llvm.lifetime.start.p0(i64 4, ptr %12) #10
  %24 = load ptr, ptr %7, align 8
  %25 = getelementptr inbounds nuw %struct.RelationData, ptr %24, i32 0, i32 15
  %26 = load i32, ptr %25, align 8
  store i32 %26, ptr %12, align 4
  call void @llvm.lifetime.start.p0(i64 1, ptr %13) #10
  store i8 0, ptr %13, align 1
  call void @llvm.lifetime.start.p0(i64 8, ptr %14) #10
  call void @llvm.lifetime.start.p0(i64 1, ptr %15) #10
  %27 = load ptr, ptr %7, align 8
  %28 = getelementptr inbounds nuw %struct.RelationData, ptr %27, i32 0, i32 13
  %29 = load ptr, ptr %28, align 8
  %30 = getelementptr inbounds nuw %struct.FormData_pg_class, ptr %29, i32 0, i32 25
  %31 = load i8, ptr %30, align 2
  %32 = sext i8 %31 to i32
  %33 = icmp eq i32 %32, 102
  br i1 %33, label %34, label %35

34:                                               ; preds = %4
  store i1 false, ptr %5, align 1
  store i32 1, ptr %16, align 4
  br label %92

35:                                               ; preds = %4
  %36 = load i8, ptr %9, align 1, !range !4, !noundef !5
  %37 = trunc i8 %36 to i1
  br i1 %37, label %38, label %54

38:                                               ; preds = %35
  %39 = load ptr, ptr %7, align 8
  %40 = getelementptr inbounds nuw %struct.RelationData, ptr %39, i32 0, i32 13
  %41 = load ptr, ptr %40, align 8
  %42 = getelementptr inbounds nuw %struct.FormData_pg_class, ptr %41, i32 0, i32 26
  %43 = load i8, ptr %42, align 1, !range !4, !noundef !5
  %44 = trunc i8 %43 to i1
  br i1 %44, label %45, label %54

45:                                               ; preds = %38
  %46 = load i32, ptr %6, align 4
  %47 = load ptr, ptr %8, align 8
  %48 = call i32 @GetTopMostAncestorInPublication(i32 noundef %46, ptr noundef %47, ptr noundef null)
  store i32 %48, ptr %12, align 4
  %49 = load i32, ptr %12, align 4
  %50 = icmp ne i32 %49, 0
  br i1 %50, label %53, label %51

51:                                               ; preds = %45
  %52 = load i32, ptr %11, align 4
  store i32 %52, ptr %12, align 4
  br label %53

53:                                               ; preds = %51, %45
  br label %54

54:                                               ; preds = %53, %38, %35
  %55 = load i32, ptr %12, align 4
  %56 = call i64 @ObjectIdGetDatum(i32 noundef %55)
  %57 = load i32, ptr %6, align 4
  %58 = call i64 @ObjectIdGetDatum(i32 noundef %57)
  %59 = call ptr @SearchSysCache2(i32 noundef 53, i64 noundef %56, i64 noundef %58)
  store ptr %59, ptr %10, align 8
  %60 = load ptr, ptr %10, align 8
  %61 = icmp ne ptr %60, null
  br i1 %61, label %63, label %62

62:                                               ; preds = %54
  store i1 false, ptr %5, align 1
  store i32 1, ptr %16, align 4
  br label %92

63:                                               ; preds = %54
  %64 = load ptr, ptr %10, align 8
  %65 = call i64 @SysCacheGetAttr(i32 noundef 53, ptr noundef %64, i16 noundef signext 4, ptr noundef %15)
  store i64 %65, ptr %14, align 8
  %66 = load i8, ptr %15, align 1, !range !4, !noundef !5
  %67 = trunc i8 %66 to i1
  br i1 %67, label %88, label %68

68:                                               ; preds = %63
  call void @llvm.lifetime.start.p0(i64 24, ptr %17) #10
  call void @llvm.memset.p0.i64(ptr align 8 %17, i8 0, i64 24, i1 false)
  call void @llvm.lifetime.start.p0(i64 8, ptr %18) #10
  call void @llvm.lifetime.start.p0(i64 8, ptr %19) #10
  store ptr null, ptr %19, align 8
  %69 = load i8, ptr %9, align 1, !range !4, !noundef !5
  %70 = trunc i8 %69 to i1
  %71 = getelementptr inbounds nuw %struct.rf_context, ptr %17, i32 0, i32 1
  %72 = zext i1 %70 to i8
  store i8 %72, ptr %71, align 8
  %73 = load i32, ptr %12, align 4
  %74 = getelementptr inbounds nuw %struct.rf_context, ptr %17, i32 0, i32 3
  store i32 %73, ptr %74, align 8
  %75 = load i32, ptr %11, align 4
  %76 = getelementptr inbounds nuw %struct.rf_context, ptr %17, i32 0, i32 2
  store i32 %75, ptr %76, align 4
  %77 = load ptr, ptr %7, align 8
  %78 = call ptr @RelationGetIndexAttrBitmap(ptr noundef %77, i32 noundef 2)
  store ptr %78, ptr %19, align 8
  %79 = load ptr, ptr %19, align 8
  %80 = getelementptr inbounds nuw %struct.rf_context, ptr %17, i32 0, i32 0
  store ptr %79, ptr %80, align 8
  %81 = load i64, ptr %14, align 8
  %82 = call ptr @DatumGetPointer(i64 noundef %81)
  %83 = call ptr @text_to_cstring(ptr noundef %82)
  %84 = call ptr @stringToNode(ptr noundef %83)
  store ptr %84, ptr %18, align 8
  %85 = load ptr, ptr %18, align 8
  %86 = call zeroext i1 @contain_invalid_rfcolumn_walker(ptr noundef %85, ptr noundef %17)
  %87 = zext i1 %86 to i8
  store i8 %87, ptr %13, align 1
  call void @llvm.lifetime.end.p0(i64 8, ptr %19) #10
  call void @llvm.lifetime.end.p0(i64 8, ptr %18) #10
  call void @llvm.lifetime.end.p0(i64 24, ptr %17) #10
  br label %88

88:                                               ; preds = %68, %63
  %89 = load ptr, ptr %10, align 8
  call void @ReleaseSysCache(ptr noundef %89)
  %90 = load i8, ptr %13, align 1, !range !4, !noundef !5
  %91 = trunc i8 %90 to i1
  store i1 %91, ptr %5, align 1
  store i32 1, ptr %16, align 4
  br label %92

92:                                               ; preds = %88, %62, %34
  call void @llvm.lifetime.end.p0(i64 1, ptr %15) #10
  call void @llvm.lifetime.end.p0(i64 8, ptr %14) #10
  call void @llvm.lifetime.end.p0(i64 1, ptr %13) #10
  call void @llvm.lifetime.end.p0(i64 4, ptr %12) #10
  call void @llvm.lifetime.end.p0(i64 4, ptr %11) #10
  call void @llvm.lifetime.end.p0(i64 8, ptr %10) #10
  %93 = load i1, ptr %5, align 1
  ret i1 %93
}