; Function Attrs: nounwind uwtable
define dso_local zeroext i1 @pub_rf_contains_invalid_column(i32 noundef %0, ptr noundef %1, ptr noundef %2, i1 noundef zeroext %3) local_unnamed_addr #0 {
  %5 = alloca i8, align 1
  %6 = alloca %struct.rf_context, align 8
  %7 = zext i1 %3 to i8
  %8 = getelementptr inbounds nuw i8, ptr %1, i64 72
  %9 = load i32, ptr %8, align 8
  call void @llvm.lifetime.start.p0(i64 1, ptr nonnull %5) #8
  %10 = getelementptr inbounds nuw i8, ptr %1, i64 56
  %11 = load ptr, ptr %10, align 8
  %12 = getelementptr inbounds nuw i8, ptr %11, i64 126
  %13 = load i8, ptr %12, align 2
  %14 = icmp eq i8 %13, 102
  br i1 %14, label %57, label %15

15:                                               ; preds = %4
  br i1 %3, label %16, label %22

16:                                               ; preds = %15
  %17 = getelementptr inbounds nuw i8, ptr %11, i64 127
  %18 = load i8, ptr %17, align 1, !range !4, !noundef !5
  %19 = trunc nuw i8 %18 to i1
  br i1 %19, label %20, label %22

20:                                               ; preds = %16
  %21 = tail call i32 @GetTopMostAncestorInPublication(i32 noundef %0, ptr noundef %2, ptr noundef null) #8
  %.not = icmp eq i32 %21, 0
  %spec.select = select i1 %.not, i32 %9, i32 %21
  br label %22

22:                                               ; preds = %20, %16, %15
  %23 = phi i32 [ %9, %16 ], [ %9, %15 ], [ %spec.select, %20 ]
  %24 = zext i32 %23 to i64
  %25 = zext i32 %0 to i64
  %26 = tail call ptr @SearchSysCache2(i32 noundef 53, i64 noundef %24, i64 noundef %25) #8
  %.not26 = icmp eq ptr %26, null
  br i1 %.not26, label %57, label %27

27:                                               ; preds = %22
  %28 = call i64 @SysCacheGetAttr(i32 noundef 53, ptr noundef nonnull %26, i16 noundef signext 4, ptr noundef nonnull %5) #8
  %29 = load i8, ptr %5, align 1, !range !4, !noundef !5
  %30 = trunc nuw i8 %29 to i1
  br i1 %30, label %56, label %31

31:                                               ; preds = %27
  call void @llvm.lifetime.start.p0(i64 24, ptr nonnull %6) #8
  %32 = getelementptr inbounds nuw i8, ptr %6, i64 8
  call void @llvm.memset.p0.i64(ptr noundef nonnull align 8 dereferenceable(24) %32, i8 0, i64 16, i1 false)
  %33 = getelementptr inbounds nuw i8, ptr %6, i64 8
  store i8 %7, ptr %33, align 8
  %34 = getelementptr inbounds nuw i8, ptr %6, i64 16
  store i32 %23, ptr %34, align 8
  %35 = getelementptr inbounds nuw i8, ptr %6, i64 12
  store i32 %9, ptr %35, align 4
  %36 = call ptr @RelationGetIndexAttrBitmap(ptr noundef nonnull %1, i32 noundef 2) #8
  store ptr %36, ptr %6, align 8
  %37 = inttoptr i64 %28 to ptr
  %38 = call ptr @text_to_cstring(ptr noundef %37) #8
  %39 = call ptr @stringToNode(ptr noundef %38) #8
  %40 = icmp eq ptr %39, null
  br i1 %40, label %contain_invalid_rfcolumn_walker.exit, label %41

41:                                               ; preds = %31
  %42 = load i32, ptr %39, align 4
  %43 = icmp eq i32 %42, 6
  br i1 %43, label %44, label %54

44:                                               ; preds = %41
  %45 = getelementptr inbounds nuw i8, ptr %39, i64 8
  %46 = load i16, ptr %45, align 8
  br i1 %3, label %47, label %50

47:                                               ; preds = %44
  %48 = call ptr @get_attname(i32 noundef %23, i16 noundef signext %46, i1 noundef zeroext false) #8
  %49 = call signext i16 @get_attnum(i32 noundef %9, ptr noundef %48) #8
  br label %50

50:                                               ; preds = %47, %44
  %.015.i = phi i16 [ %49, %47 ], [ %46, %44 ]
  %51 = sext i16 %.015.i to i32
  %52 = add nsw i32 %51, 7
  %53 = call zeroext i1 @bms_is_member(i32 noundef %52, ptr noundef %36) #8
  br i1 %53, label %54, label %contain_invalid_rfcolumn_walker.exit

54:                                               ; preds = %50, %41
  %55 = call zeroext i1 @expression_tree_walker_impl(ptr noundef nonnull %39, ptr noundef nonnull @contain_invalid_rfcolumn_walker, ptr noundef nonnull %6) #8
  br label %contain_invalid_rfcolumn_walker.exit

contain_invalid_rfcolumn_walker.exit:             ; preds = %31, %50, %54
  %.014.i = phi i1 [ true, %50 ], [ %55, %54 ], [ false, %31 ]
  call void @llvm.lifetime.end.p0(i64 24, ptr nonnull %6) #8
  br label %56

56:                                               ; preds = %contain_invalid_rfcolumn_walker.exit, %27
  %.023 = phi i1 [ false, %27 ], [ %.014.i, %contain_invalid_rfcolumn_walker.exit ]
  call void @ReleaseSysCache(ptr noundef nonnull %26) #8
  br label %57

57:                                               ; preds = %22, %4, %56
  %.0 = phi i1 [ %.023, %56 ], [ false, %4 ], [ false, %22 ]
  call void @llvm.lifetime.end.p0(i64 1, ptr nonnull %5) #8
  ret i1 %.0
}